target datalayout = "e-m:e-p270:32:32-p271:32:32-p272:64:64-i64:64-i128:128-f80:128-n8:16:32:64-S128"
target triple = "x86_64-pc-linux-gnu"

%struct.AVFilterContext = type { ptr, ptr, ptr, ptr, ptr, i32, ptr, ptr, i32, ptr, ptr, i32, i32, ptr, ptr, ptr, ptr, i32, ptr, i32, i32 }
%struct.StreamSelectContext = type { ptr, i32, ptr, ptr, i32, i32, ptr, ptr, %struct.FFFrameSync }
%struct.FFFrameSync = type { ptr, ptr, i32, %struct.AVRational, i64, ptr, ptr, i32, i32, i8, i8, ptr, i32, i32, i32, i32 }
%struct.AVRational = type { i32, i32 }
%struct.AVFilter = type { ptr, ptr, ptr, ptr, ptr, i32 }

@.str.2 = private unnamed_addr constant [14 x i8] c"astreamselect\00", align 1
@.str.11 = private unnamed_addr constant [40 x i8] c"Configured with %d inpad and %d outpad\0A\00", align 1

; Function Attrs: cold nounwind optsize uwtable
define internal i32 @init(ptr noundef %0) #0 {
  %2 = alloca i32, align 4
  %3 = alloca ptr, align 8
  %4 = alloca ptr, align 8
  %5 = alloca i32, align 4
  %6 = alloca i32, align 4
  %7 = alloca ptr, align 8
  %8 = alloca ptr, align 8
  %9 = alloca i32, align 4
  store ptr %0, ptr %3, align 8, !tbaa !4
  call void @llvm.lifetime.start.p0(i64 8, ptr %4) #10
  %10 = load ptr, ptr %3, align 8, !tbaa !4
  %11 = getelementptr inbounds nuw %struct.AVFilterContext, ptr %10, i32 0, i32 9
  %12 = load ptr, ptr %11, align 8, !tbaa !9
  store ptr %12, ptr %4, align 8, !tbaa !22
  call void @llvm.lifetime.start.p0(i64 4, ptr %5) #10
  call void @llvm.lifetime.start.p0(i64 4, ptr %6) #10
  store i32 0, ptr %6, align 4, !tbaa !24
  call void @llvm.lifetime.start.p0(i64 8, ptr %7) #10
  %13 = load ptr, ptr %4, align 8, !tbaa !22
  %14 = getelementptr inbounds nuw %struct.StreamSelectContext, ptr %13, i32 0, i32 2
  %15 = load ptr, ptr %14, align 8, !tbaa !25
  store ptr %15, ptr %7, align 8, !tbaa !34
  %16 = load ptr, ptr %3, align 8, !tbaa !4
  %17 = getelementptr inbounds nuw %struct.AVFilterContext, ptr %16, i32 0, i32 1
  %18 = load ptr, ptr %17, align 8, !tbaa !35
  %19 = getelementptr inbounds nuw %struct.AVFilter, ptr %18, i32 0, i32 0
  %20 = load ptr, ptr %19, align 8, !tbaa !36
  %21 = call i32 @strcmp(ptr noundef %20, ptr noundef @.str.2) #11
  %22 = icmp ne i32 %21, 0
  br i1 %22, label %26, label %23

23:                                               ; preds = %1
  %24 = load ptr, ptr %4, align 8, !tbaa !22
  %25 = getelementptr inbounds nuw %struct.StreamSelectContext, ptr %24, i32 0, i32 5
  store i32 1, ptr %25, align 4, !tbaa !38
  br label %26

26:                                               ; preds = %23, %1
  br label %27

27:                                               ; preds = %43, %26
  %28 = load ptr, ptr %7, align 8, !tbaa !34
  %29 = icmp ne ptr %28, null
  br i1 %29, label %30, label %44

30:                                               ; preds = %27
  call void @llvm.lifetime.start.p0(i64 8, ptr %8) #10
  %31 = load ptr, ptr %7, align 8, !tbaa !34
  %32 = call i64 @strtol(ptr noundef %31, ptr noundef %8, i32 noundef 0) #10
  %33 = load ptr, ptr %7, align 8, !tbaa !34
  %34 = load ptr, ptr %8, align 8, !tbaa !34
  %35 = icmp eq ptr %33, %34
  br i1 %35, label %36, label %37

36:                                               ; preds = %30
  store i32 2, ptr %9, align 4
  br label %41

37:                                               ; preds = %30
  %38 = load i32, ptr %6, align 4, !tbaa !24
  %39 = add nsw i32 %38, 1
  store i32 %39, ptr %6, align 4, !tbaa !24
  %40 = load ptr, ptr %8, align 8, !tbaa !34
  store ptr %40, ptr %7, align 8, !tbaa !34
  store i32 0, ptr %9, align 4
  br label %41

41:                                               ; preds = %37, %36
  call void @llvm.lifetime.end.p0(i64 8, ptr %8) #10
  %42 = load i32, ptr %9, align 4
  switch i32 %42, label %92 [
    i32 0, label %43
    i32 2, label %44
  ]

43:                                               ; preds = %41
  br label %27, !llvm.loop !39

44:                                               ; preds = %41, %27
  %45 = load ptr, ptr %4, align 8, !tbaa !22
  %46 = getelementptr inbounds nuw %struct.StreamSelectContext, ptr %45, i32 0, i32 1
  %47 = load i32, ptr %46, align 8, !tbaa !41
  %48 = sext i32 %47 to i64
  %49 = call noalias ptr @av_calloc(i64 noundef %48, i64 noundef 8)
  %50 = load ptr, ptr %4, align 8, !tbaa !22
  %51 = getelementptr inbounds nuw %struct.StreamSelectContext, ptr %50, i32 0, i32 6
  store ptr %49, ptr %51, align 8, !tbaa !42
  %52 = load ptr, ptr %4, align 8, !tbaa !22
  %53 = getelementptr inbounds nuw %struct.StreamSelectContext, ptr %52, i32 0, i32 6
  %54 = load ptr, ptr %53, align 8, !tbaa !42
  %55 = icmp ne ptr %54, null
  br i1 %55, label %57, label %56

56:                                               ; preds = %44
  store i32 -12, ptr %2, align 4
  store i32 1, ptr %9, align 4
  br label %90

57:                                               ; preds = %44
  %58 = load ptr, ptr %3, align 8, !tbaa !4
  %59 = load ptr, ptr %4, align 8, !tbaa !22
  %60 = getelementptr inbounds nuw %struct.StreamSelectContext, ptr %59, i32 0, i32 1
  %61 = load i32, ptr %60, align 8, !tbaa !41
  %62 = load ptr, ptr %4, align 8, !tbaa !22
  %63 = getelementptr inbounds nuw %struct.StreamSelectContext, ptr %62, i32 0, i32 5
  %64 = load i32, ptr %63, align 4, !tbaa !38
  %65 = call i32 @parse_definition(ptr noundef %58, i32 noundef %61, i32 noundef 1, i32 noundef %64)
  store i32 %65, ptr %5, align 4, !tbaa !24
  %66 = icmp slt i32 %65, 0
  br i1 %66, label %75, label %67

67:                                               ; preds = %57
  %68 = load ptr, ptr %3, align 8, !tbaa !4
  %69 = load i32, ptr %6, align 4, !tbaa !24
  %70 = load ptr, ptr %4, align 8, !tbaa !22
  %71 = getelementptr inbounds nuw %struct.StreamSelectContext, ptr %70, i32 0, i32 5
  %72 = load i32, ptr %71, align 4, !tbaa !38
  %73 = call i32 @parse_definition(ptr noundef %68, i32 noundef %69, i32 noundef 0, i32 noundef %72)
  store i32 %73, ptr %5, align 4, !tbaa !24
  %74 = icmp slt i32 %73, 0
  br i1 %74, label %75, label %77

75:                                               ; preds = %67, %57
  %76 = load i32, ptr %5, align 4, !tbaa !24
  store i32 %76, ptr %2, align 4
  store i32 1, ptr %9, align 4
  br label %90

77:                                               ; preds = %67
  %78 = load ptr, ptr %3, align 8, !tbaa !4
  %79 = load ptr, ptr %3, align 8, !tbaa !4
  %80 = getelementptr inbounds nuw %struct.AVFilterContext, ptr %79, i32 0, i32 5
  %81 = load i32, ptr %80, align 8, !tbaa !43
  %82 = load ptr, ptr %3, align 8, !tbaa !4
  %83 = getelementptr inbounds nuw %struct.AVFilterContext, ptr %82, i32 0, i32 8
  %84 = load i32, ptr %83, align 8, !tbaa !44
  call void (ptr, i32, ptr, ...) @av_log(ptr noundef %78, i32 noundef 48, ptr noundef @.str.11, i32 noundef %81, i32 noundef %84)
  %85 = load ptr, ptr %3, align 8, !tbaa !4
  %86 = load ptr, ptr %4, align 8, !tbaa !22
  %87 = getelementptr inbounds nuw %struct.StreamSelectContext, ptr %86, i32 0, i32 2
  %88 = load ptr, ptr %87, align 8, !tbaa !25
  %89 = call i32 @parse_mapping(ptr noundef %85, ptr noundef %88)
  store i32 %89, ptr %2, align 4
  store i32 1, ptr %9, align 4
  br label %90

90:                                               ; preds = %77, %75, %56
  call void @llvm.lifetime.end.p0(i64 8, ptr %7) #10
  call void @llvm.lifetime.end.p0(i64 4, ptr %6) #10
  call void @llvm.lifetime.end.p0(i64 4, ptr %5) #10
  call void @llvm.lifetime.end.p0(i64 8, ptr %4) #10
  %91 = load i32, ptr %2, align 4
  ret i32 %91

92:                                               ; preds = %41
  unreachable
}