; Function Attrs: cold nounwind optsize uwtable
define internal range(i32 -2147483648, 1) i32 @init(ptr noundef %0) #0 {
  %2 = alloca ptr, align 8
  %3 = getelementptr inbounds nuw i8, ptr %0, i64 72
  %4 = load ptr, ptr %3, align 8, !tbaa !4
  %5 = getelementptr inbounds nuw i8, ptr %4, i64 16
  %6 = load ptr, ptr %5, align 8, !tbaa !20
  %7 = getelementptr inbounds nuw i8, ptr %0, i64 8
  %8 = load ptr, ptr %7, align 8, !tbaa !30
  %9 = load ptr, ptr %8, align 8, !tbaa !31
  %10 = tail call i32 @strcmp(ptr noundef nonnull dereferenceable(1) %9, ptr noundef nonnull dereferenceable(14) @.str.2) #8
  %.not = icmp eq i32 %10, 0
  br i1 %.not, label %11, label %.preheader

11:                                               ; preds = %1
  %12 = getelementptr inbounds nuw i8, ptr %4, i64 36
  store i32 1, ptr %12, align 4, !tbaa !33
  br label %.preheader

.preheader:                                       ; preds = %11, %1
  br label %13

13:                                               ; preds = %.preheader, %14
  %.025 = phi i32 [ %18, %14 ], [ 0, %.preheader ]
  %.024 = phi ptr [ %16, %14 ], [ %6, %.preheader ]
  %.not32 = icmp eq ptr %.024, null
  br i1 %.not32, label %19, label %14

14:                                               ; preds = %13
  call void @llvm.lifetime.start.p0(i64 8, ptr nonnull %2) #9
  %15 = call i64 @strtol(ptr noundef nonnull %.024, ptr noundef nonnull %2, i32 noundef 0) #9
  %16 = load ptr, ptr %2, align 8, !tbaa !34
  %17 = icmp eq ptr %.024, %16
  %18 = add nuw nsw i32 %.025, 1
  call void @llvm.lifetime.end.p0(i64 8, ptr nonnull %2) #9
  br i1 %17, label %19, label %13

19:                                               ; preds = %14, %13
  %20 = getelementptr inbounds nuw i8, ptr %4, i64 8
  %21 = load i32, ptr %20, align 8, !tbaa !35
  %22 = sext i32 %21 to i64
  %23 = tail call noalias ptr @av_calloc(i64 noundef %22, i64 noundef 8) #9
  %24 = getelementptr inbounds nuw i8, ptr %4, i64 40
  store ptr %23, ptr %24, align 8, !tbaa !36
  %.not33 = icmp eq ptr %23, null
  br i1 %.not33, label %42, label %25

25:                                               ; preds = %19
  %26 = load i32, ptr %20, align 8, !tbaa !35
  %27 = getelementptr inbounds nuw i8, ptr %4, i64 36
  %28 = load i32, ptr %27, align 4, !tbaa !33
  %29 = tail call fastcc i32 @parse_definition(ptr noundef %0, i32 noundef %26, i32 noundef 1, i32 noundef %28)
  %30 = icmp slt i32 %29, 0
  br i1 %30, label %42, label %31

31:                                               ; preds = %25
  %32 = load i32, ptr %27, align 4, !tbaa !33
  %33 = tail call fastcc i32 @parse_definition(ptr noundef %0, i32 noundef %.025, i32 noundef 0, i32 noundef %32)
  %34 = icmp slt i32 %33, 0
  br i1 %34, label %42, label %35

35:                                               ; preds = %31
  %36 = getelementptr inbounds nuw i8, ptr %0, i64 40
  %37 = load i32, ptr %36, align 8, !tbaa !37
  %38 = getelementptr inbounds nuw i8, ptr %0, i64 64
  %39 = load i32, ptr %38, align 8, !tbaa !38
  tail call void (ptr, i32, ptr, ...) @av_log(ptr noundef %0, i32 noundef 48, ptr noundef nonnull @.str.11, i32 noundef %37, i32 noundef %39) #9
  %40 = load ptr, ptr %5, align 8, !tbaa !20
  %41 = tail call fastcc i32 @parse_mapping(ptr noundef %0, ptr noundef %40)
  br label %42

42:                                               ; preds = %25, %31, %19, %35
  %.028 = phi i32 [ %41, %35 ], [ -12, %19 ], [ %29, %25 ], [ %33, %31 ]
  ret i32 %.028
}